
 Start  Stop   Length Name               Class

 00000H 0082DH 0082EH _TEXT              CODE
 0082EH 00E22H 005F5H CONVERT2_TEXT      CODE
 00E30H 01246H 00417H E87_PROG           CODE
 01247H 012FDH 000B7H FPERR_TEXT         CODE
 012FEH 01303H 00006H FPRESET_TEXT       CODE
 01304H 013CBH 000C8H POW10_TEXT         CODE
 013CCH 0157BH 001B0H REALCVT_TEXT       CODE
 0157CH 01746H 001CBH XCVT_TEXT          CODE
 01747H 01781H 0003BH IOERROR_TEXT       CODE
 01782H 017B5H 00034H EXIT_TEXT          CODE
 017B6H 017B6H 00000H STKLEN_TEXT        CODE
 017B6H 017E4H 0002FH ATEXIT_TEXT        CODE
 017E5H 01AF4H 00310H FMALLOC_TEXT       CODE
 01AF5H 01C46H 00152H FBRK_TEXT          CODE
 01C47H 01C66H 00020H SETBLOCK_TEXT      CODE
 01C67H 01F31H 002CBH FOPEN_TEXT         CODE
 01F32H 020D1H 001A0H OPEN_TEXT          CODE
 020D2H 0211EH 0004DH OPENA_TEXT         CODE
 0211FH 0211FH 00000H FILES_TEXT         CODE
 0211FH 0211FH 00000H FILES2_TEXT        CODE
 0211FH 0211FH 00000H FMODE_TEXT         CODE
 0211FH 0226BH 0014DH FSEEK_TEXT         CODE
 0226CH 02298H 0002DH IOCTL_TEXT         CODE
 02299H 022B0H 00018H ISATTY_TEXT        CODE
 022B1H 023F2H 00142H SETVBUF_TEXT       CODE
 023F3H 024C2H 000D0H FCLOSE_TEXT        CODE
 024C3H 024F3H 00031H CLOSE_TEXT         CODE
 024F4H 02519H 00026H CLOSEA_TEXT        CODE
 0251AH 02551H 00038H XFCLOSE_TEXT       CODE
 02552H 0258BH 0003AH XFFLUSH_TEXT       CODE
 0258CH 026F1H 00166H WRITE_TEXT         CODE
 026F2H 0273DH 0004CH WRITEA_TEXT        CODE
 0273EH 0277CH 0003FH ACCESS_TEXT        CODE
 0277DH 027A9H 0002DH LSEEK_TEXT         CODE
 027AAH 028A5H 000FCH LTOA_TEXT          CODE
 028A6H 02955H 000B0H TMPNAM_TEXT        CODE
 02956H 02971H 0001CH UNLINK_TEXT        CODE
 02972H 029B3H 00042H STRCAT_TEXT        CODE
 029B4H 029D4H 00021H CHMODA_TEXT        CODE
 029D5H 02ABCH 000E8H FFLUSH_TEXT        CODE
 02ABDH 02D87H 002CBH PUTC_TEXT          CODE
 02D88H 032D9H 00552H VPRINTER_TEXT      CODE
 032DAH 035FDH 00324H FFREE_TEXT         CODE
 035FEH 03622H 00025H FPRINTF_TEXT       CODE
 03623H 03645H 00023H GETVECT_TEXT       CODE
 03646H 0365DH 00018H OUTPORT_TEXT       CODE
 0365EH 0365EH 00000H SIGDATA_TEXT       CODE
 03660H 03B93H 00534H _DATA              DATA
 03B94H 03B97H 00004H _EMUSEG            DATA
 03B98H 03B99H 00002H _CRTSEG            DATA
 03B9AH 03BA1H 00008H _CVTSEG            DATA
 03BA2H 03BADH 0000CH _SCNSEG            DATA
 03BAEH 07CEDH 04140H _BSS               BSS
 07CEEH 07CEEH 00000H _BSSEND            STACK
 07CF0H 07DD5H 000E6H _STACK             STACK

  Address         Publics by Name

 0000:01C7       DGROUP@
 00E3:02EB       e087_Entry
 00E3:036B       e087_Shortcut
 07CF:00E6       emuTop@
 07CF:00DA       emws_adjust
 07CF:00DE       emws_BPsafe
 07CF:00D6       emws_control
 07CF:00DC       emws_fixSeg
 07CF:00C0       emws_initialSP
 07CF:0000       emws_limitSP
 07CF:00D0       emws_nmiVector
 07CF:00CC       emws_saveVector
 07CF:00E0       emws_stamp
 07CF:00D4       emws_status
 07CF:00D8       emws_TOS
 07CF:00E4       emws_version
 0000:0000  Abs  FIARQQ
 0000:0000  Abs  FICRQQ
 0000:0000  Abs  FIDRQQ
 0000:0000  Abs  FIERQQ
 0000:0000  Abs  FISRQQ
 0000:0000  Abs  FIWRQQ
 0000:0000  Abs  FJARQQ
 0000:0000  Abs  FJCRQQ
 0000:0000  Abs  FJSRQQ
 0000:052C       FPE1st
 0000:0547       FPElast
 0000:0554       FTOL@
 0000:076C       LDIV@
 0000:0775       LMOD@
 0000:0770       LUDIV@
 0000:077A       LUMOD@
 0000:080F       LXURSH@
 0000:06C9       PADD@
 0000:0724       PCMP@
 0000:06F6       PSUB@
 0000:01AF       _abort
 0273:000E       _access
 017B:0006       _atexit
 0082:03FE       _BccChk
 0082:01FC       _BufAdd
 0082:02B8       _BufEmpty
 0082:01BE       _clearBuffer
 024C:0003       _close
 0366:4557       _Data
 0366:0071       _environ
 0366:007F       _errno
 0178:0003       _exit
 032D:02E4       _farfree
 017E:0206       _farmalloc
 023F:0003       _fclose
 01C6:0290       _fdopen
 029D:0005       _fflush
 01C6:021F       _fopen
 035F:000E       _fprintf
 02AB:002C       _fputc
 02AB:01CE       _fputchar
 032D:000A       _free
 01C6:0255       _freopen
 0211:005D       _fseek
 0211:00EB       _ftell
 0082:02E2       _GetBuf
 0362:0003       _getvect
 0082:037E       _Initialize
 0226:000C       _ioctl
 0229:0009       _isatty
 027A:008E       _itoa
 0277:000D       _lseek
 027A:00DB       _ltoa
 0082:04DB       _main
 017E:0005       _malloc
 01F3:0035       _open
 0082:0359       _OutPort
 0364:0006       _outport
 0364:0012       _outportb
 0130:0004       _pow10
 0082:000E       _setBaud
 01C4:0007       _setblock
 0082:006F       _setLine
 0082:00A3       _setModem
 022B:0001       _setvbuf
 0362:0015       _setvect
 0297:0002       _strcat
 0082:03F5       _SysClose
 0366:45E3       _tic
 0082:04A1       _TimeKill
 028A:006D       _tmpnam
 027A:00BB       _ultoa
 0295:0006       _unlink
 0082:0346       _WhatCom
 0258:000C       _write
 0366:0081       __8087
 0366:006B       __argc
 0366:006D       __argv
 0366:02AE       __atexitcnt
 0366:45FA       __atexittbl
 01AF:0095       __brk
 0366:008B       __brklvl
 029B:0004       __chmod
 024F:0004       __close
 0000:0000  Abs  __cvtfak
 0366:0244       __doserrno
 0366:0246       __dosErrorToSV
 0000:023B       __EMURESET
 0366:0075       __envLng
 0366:0077       __envseg
 0366:0079       __envSize
 0000:010D       __exit
 0366:02A0       __exitbuf
 0366:02A4       __exitfopen
 0366:02A8       __exitopen
 0366:02B0       __first
 0366:0476       __fmode
 0124:0007       __fperr
 0000:02F4       __FPExcep
 012F:000E       __fpreset
 02AB:000D       __fputc
 02AB:01E7       __FPUTN
 0366:0087       __heapbase
 0366:008F       __heaptop
 0366:005B       __Int0Vector
 0366:005F       __Int4Vector
 0366:0063       __Int5Vector
 0366:0067       __Int6Vector
 0174:0007       __IOERROR
 0366:02B4       __last
 027A:000A       __LONGTOA
 028A:0006       __MKNAME
 0366:0478       __notUmask
 020D:0002       __open
 0366:044E       __openfd
 0366:007D       __osmajor
 0366:007E       __osminor
 0366:007B       __psp
 017E:001A       __pull_free_block
 0000:0768       __REALCVT
 0366:053A       __RealCvtVector
 0000:0172       __restorezero
 0366:02B8       __rover
 01AF:00DC       __sbrk
 0366:0542       __ScanTodVector
 0000:0587       __setargv
 0000:0685       __setenvp
 0366:0083       __StartTime
 0366:047A       __stdinStarted
 0366:047C       __stdoutStarted
 0366:02AC       __stklen
 0366:02BE       __streams
 0366:467A       __tmpnum
 0000:0000  Abs  __turboCvt
 0366:007D       __version
 02D8:0033       __VPRINTER
 026F:0002       __write
 0157:000C       __XCVT
 0251:000A       __xfclose
 0255:0002       __xfflush
 0366:468A       ___SignalPtr

  Address         Publics by Value

 0000:0000  Abs  FJSRQQ
 0000:0000  Abs  FIARQQ
 0000:0000  Abs  FISRQQ
 0000:0000  Abs  FJARQQ
 0000:0000  Abs  FIWRQQ
 0000:0000  Abs  FIDRQQ
 0000:0000  Abs  FIERQQ
 0000:0000  Abs  __turboCvt
 0000:0000  Abs  __cvtfak
 0000:0000  Abs  FJCRQQ
 0000:0000  Abs  FICRQQ
 0000:010D       __exit
 0000:0172       __restorezero
 0000:01AF       _abort
 0000:01C7       DGROUP@
 0000:023B       __EMURESET
 0000:02F4       __FPExcep
 0000:052C       FPE1st
 0000:0547       FPElast
 0000:0554       FTOL@
 0000:0587       __setargv
 0000:0685       __setenvp
 0000:06C9       PADD@
 0000:06F6       PSUB@
 0000:0724       PCMP@
 0000:0768       __REALCVT
 0000:076C       LDIV@
 0000:0770       LUDIV@
 0000:0775       LMOD@
 0000:077A       LUMOD@
 0000:080F       LXURSH@
 0082:000E       _setBaud
 0082:006F       _setLine
 0082:00A3       _setModem
 0082:01BE       _clearBuffer
 0082:01FC       _BufAdd
 0082:02B8       _BufEmpty
 0082:02E2       _GetBuf
 0082:0346       _WhatCom
 0082:0359       _OutPort
 0082:037E       _Initialize
 0082:03F5       _SysClose
 0082:03FE       _BccChk
 0082:04A1       _TimeKill
 0082:04DB       _main
 00E3:02EB       e087_Entry
 00E3:036B       e087_Shortcut
 0124:0007       __fperr
 012F:000E       __fpreset
 0130:0004       _pow10
 0157:000C       __XCVT
 0174:0007       __IOERROR
 0178:0003       _exit
 017B:0006       _atexit
 017E:0005       _malloc
 017E:001A       __pull_free_block
 017E:0206       _farmalloc
 01AF:0095       __brk
 01AF:00DC       __sbrk
 01C4:0007       _setblock
 01C6:021F       _fopen
 01C6:0255       _freopen
 01C6:0290       _fdopen
 01F3:0035       _open
 020D:0002       __open
 0211:005D       _fseek
 0211:00EB       _ftell
 0226:000C       _ioctl
 0229:0009       _isatty
 022B:0001       _setvbuf
 023F:0003       _fclose
 024C:0003       _close
 024F:0004       __close
 0251:000A       __xfclose
 0255:0002       __xfflush
 0258:000C       _write
 026F:0002       __write
 0273:000E       _access
 0277:000D       _lseek
 027A:000A       __LONGTOA
 027A:008E       _itoa
 027A:00BB       _ultoa
 027A:00DB       _ltoa
 028A:0006       __MKNAME
 028A:006D       _tmpnam
 0295:0006       _unlink
 0297:0002       _strcat
 029B:0004       __chmod
 029D:0005       _fflush
 02AB:000D       __fputc
 02AB:002C       _fputc
 02AB:01CE       _fputchar
 02AB:01E7       __FPUTN
 02D8:0033       __VPRINTER
 032D:000A       _free
 032D:02E4       _farfree
 035F:000E       _fprintf
 0362:0003       _getvect
 0362:0015       _setvect
 0364:0006       _outport
 0364:0012       _outportb
 0366:005B       __Int0Vector
 0366:005F       __Int4Vector
 0366:0063       __Int5Vector
 0366:0067       __Int6Vector
 0366:006B       __argc
 0366:006D       __argv
 0366:0071       _environ
 0366:0075       __envLng
 0366:0077       __envseg
 0366:0079       __envSize
 0366:007B       __psp
 0366:007D       __version
 0366:007D       __osmajor
 0366:007E       __osminor
 0366:007F       _errno
 0366:0081       __8087
 0366:0083       __StartTime
 0366:0087       __heapbase
 0366:008B       __brklvl
 0366:008F       __heaptop
 0366:0244       __doserrno
 0366:0246       __dosErrorToSV
 0366:02A0       __exitbuf
 0366:02A4       __exitfopen
 0366:02A8       __exitopen
 0366:02AC       __stklen
 0366:02AE       __atexitcnt
 0366:02B0       __first
 0366:02B4       __last
 0366:02B8       __rover
 0366:02BE       __streams
 0366:044E       __openfd
 0366:0476       __fmode
 0366:0478       __notUmask
 0366:047A       __stdinStarted
 0366:047C       __stdoutStarted
 0366:053A       __RealCvtVector
 0366:0542       __ScanTodVector
 0366:4557       _Data
 0366:45E3       _tic
 0366:45FA       __atexittbl
 0366:467A       __tmpnum
 0366:468A       ___SignalPtr
 07CF:0000       emws_limitSP
 07CF:00C0       emws_initialSP
 07CF:00CC       emws_saveVector
 07CF:00D0       emws_nmiVector
 07CF:00D4       emws_status
 07CF:00D6       emws_control
 07CF:00D8       emws_TOS
 07CF:00DA       emws_adjust
 07CF:00DC       emws_fixSeg
 07CF:00DE       emws_BPsafe
 07CF:00E0       emws_stamp
 07CF:00E4       emws_version
 07CF:00E6       emuTop@

Line numbers for C:\TC\MAKE\CONVERT2.OBJ(CONVERT2.C) segment CONVERT2_TEXT

    80 0082:000E    85 0082:0013    86 0082:001E    87 0082:0027
    88 0082:0033    89 0082:0048    90 0082:0063    91 0082:006C
    93 0082:006F    95 0082:0073    96 0082:0077    97 0082:007D
    98 0082:0086    99 0082:008F   100 0082:00A1   102 0082:00A3
   104 0082:00A6   105 0082:00B7   107 0082:00B9   109 0082:00BC
   110 0082:00CB   111 0082:00DA   112 0082:00E9   113 0082:00F8
   115 0082:00FA   119 0082:00FE   120 0082:010A   121 0082:010F
   122 0082:0116   124 0082:0128   125 0082:0134   126 0082:0139
   127 0082:0140   129 0082:0152   130 0082:0153   132 0082:0155
   134 0082:0158   135 0082:015E   136 0082:0164   137 0082:016A
   138 0082:0170   140 0082:0172   142 0082:0182   143 0082:018A
   144 0082:018E   146 0082:0198   148 0082:01A8   149 0082:01B0
   150 0082:01B4   154 0082:01BE   156 0082:01C1   157 0082:01DF
   158 0082:01EB   159 0082:01FA   161 0082:01FC   165 0082:01FF
   166 0082:020E   168 0082:020E   171 0082:0255   172 0082:0286
   173 0082:0294   175 0082:02B6   177 0082:02B8   179 0082:02BB
   180 0082:02D9   181 0082:02DE   182 0082:02E0   184 0082:02E2
   186 0082:02E6   187 0082:02F4   188 0082:0329   189 0082:0343
   191 0082:0346   193 0082:0349   194 0082:0354   195 0082:0357
   197 0082:0359   199 0082:035C   200 0082:036E   201 0082:037C
   203 0082:037E   208 0082:0382   211 0082:0388   212 0082:038E
   213 0082:0394   215 0082:039E   216 0082:03A4   217 0082:03B4
   218 0082:03CA   220 0082:03DB   221 0082:03DC   222 0082:03E0
   223 0082:03E4   224 0082:03EB   225 0082:03F2   226 0082:03F3
   228 0082:03F5   230 0082:03F8   231 0082:03FC   233 0082:03FE
   235 0082:0403   237 0082:0405   238 0082:0419   239 0082:041B
   244 0082:041F   246 0082:0422   247 0082:042B   248 0082:043A
   250 0082:0449   251 0082:044B   253 0082:044E   254 0082:0457
   255 0082:0469   257 0082:0475   259 0082:0477   261 0082:0487
   262 0082:048C   263 0082:0493   265 0082:0497   267 0082:04A1
   269 0082:04A4   270 0082:04A8   271 0082:04C3   272 0082:04D5
   273 0082:04D9   275 0082:04DB   278 0082:04E1   280 0082:04E4
   282 0082:04E9   283 0082:04EF   284 0082:04F3   285 0082:04F5
   288 0082:0504   289 0082:0509   291 0082:050D   294 0082:0527
   296 0082:0532   293 0082:0550   301 0082:0560   303 0082:056B
   304 0082:0571   305 0082:0573   306 0082:0576   307 0082:0578
   308 0082:0582   300 0082:0596   311 0082:05A3   313 0082:05AE
   315 0082:05D0   316 0082:05E0   318 0082:05E6   319 0082:05E8
   320 0082:05EA   299 0082:05EC   323 0082:05F0   325 0082:05FD
   326 0082:05FF
Program entry point at 0000:0000

